target datalayout = "e-m:e-p270:32:32-p271:32:32-p272:64:64-i64:64-i128:128-f80:128-n8:16:32:64-S128"
target triple = "x86_64-pc-linux-gnu"

%struct.ComplexArray = type { ptr, ptr }
%struct.DiagonalOp = type { i32, i64, i32, i32, ptr, ptr, %struct.ComplexArray }

; Function Attrs: nounwind uwtable
define void @QuESTAssert(i32 noundef %0, i32 noundef %1, ptr noundef %2) #0 {
  %4 = alloca i32, align 4
  %5 = alloca i32, align 4
  %6 = alloca ptr, align 8
  store i32 %0, ptr %4, align 4, !tbaa !9
  store i32 %1, ptr %5, align 4, !tbaa !9
  store ptr %2, ptr %6, align 8, !tbaa !4
  %7 = load i32, ptr %4, align 4, !tbaa !9
  %8 = icmp ne i32 %7, 0
  br i1 %8, label %15, label %9

9:                                                ; preds = %3
  %10 = load i32, ptr %5, align 4, !tbaa !9
  %11 = zext i32 %10 to i64
  %12 = getelementptr inbounds nuw [92 x ptr], ptr @errorMessages, i64 0, i64 %11
  %13 = load ptr, ptr %12, align 8, !tbaa !4
  %14 = load ptr, ptr %6, align 8, !tbaa !4
  call void @invalidQuESTInputError(ptr noundef %13, ptr noundef %14)
  br label %15

15:                                               ; preds = %9, %3
  ret void
}

; Function Attrs: nounwind uwtable
define void @validateNumElems(ptr noundef byval(%struct.DiagonalOp) align 8 %0, i64 noundef %1, i64 noundef %2, ptr noundef %3) #0 {
  %5 = alloca i64, align 8
  %6 = alloca i64, align 8
  %7 = alloca ptr, align 8
  %8 = alloca i64, align 8
  store i64 %1, ptr %5, align 8, !tbaa !32
  store i64 %2, ptr %6, align 8, !tbaa !32
  store ptr %3, ptr %7, align 8, !tbaa !4
  call void @llvm.lifetime.start.p0(i64 8, ptr %8) #7
  %9 = getelementptr inbounds nuw %struct.DiagonalOp, ptr %0, i32 0, i32 0
  %10 = load i32, ptr %9, align 8, !tbaa !44
  %11 = zext i32 %10 to i64
  %12 = shl i64 1, %11
  store i64 %12, ptr %8, align 8, !tbaa !32
  %13 = load i64, ptr %5, align 8, !tbaa !32
  %14 = icmp sge i64 %13, 0
  br i1 %14, label %15, label %19

15:                                               ; preds = %4
  %16 = load i64, ptr %5, align 8, !tbaa !32
  %17 = load i64, ptr %8, align 8, !tbaa !32
  %18 = icmp slt i64 %16, %17
  br label %19

19:                                               ; preds = %15, %4
  %20 = phi i1 [ false, %4 ], [ %18, %15 ]
  %21 = zext i1 %20 to i32
  %22 = load ptr, ptr %7, align 8, !tbaa !4
  call void @QuESTAssert(i32 noundef %21, i32 noundef 8, ptr noundef %22)
  %23 = load i64, ptr %6, align 8, !tbaa !32
  %24 = icmp sge i64 %23, 0
  br i1 %24, label %25, label %29

25:                                               ; preds = %19
  %26 = load i64, ptr %6, align 8, !tbaa !32
  %27 = load i64, ptr %8, align 8, !tbaa !32
  %28 = icmp sle i64 %26, %27
  br label %29

29:                                               ; preds = %25, %19
  %30 = phi i1 [ false, %19 ], [ %28, %25 ]
  %31 = zext i1 %30 to i32
  %32 = load ptr, ptr %7, align 8, !tbaa !4
  call void @QuESTAssert(i32 noundef %31, i32 noundef 10, ptr noundef %32)
  %33 = load i64, ptr %6, align 8, !tbaa !32
  %34 = load i64, ptr %5, align 8, !tbaa !32
  %35 = add nsw i64 %33, %34
  %36 = load i64, ptr %8, align 8, !tbaa !32
  %37 = icmp sle i64 %35, %36
  %38 = zext i1 %37 to i32
  %39 = load ptr, ptr %7, align 8, !tbaa !4
  call void @QuESTAssert(i32 noundef %38, i32 noundef 12, ptr noundef %39)
  call void @llvm.lifetime.end.p0(i64 8, ptr %8) #7
  ret void
}