; Function Attrs: nounwind uwtable
define void @validateNumElems(ptr noundef readonly byval(%struct.DiagonalOp) align 8 captures(none) %0, i64 noundef %1, i64 noundef %2, ptr noundef %3) local_unnamed_addr #3 {
  %5 = load i32, ptr %0, align 8, !tbaa !29
  %6 = zext nneg i32 %5 to i64
  %7 = shl nuw i64 1, %6
  %8 = icmp slt i64 %1, 0
  %9 = icmp sge i64 %1, %7
  %.not16 = select i1 %8, i1 true, i1 %9
  br i1 %.not16, label %10, label %QuESTAssert.exit

10:                                               ; preds = %4
  tail call void @invalidQuESTInputError(ptr noundef nonnull @.str.10, ptr noundef %3)
  br label %QuESTAssert.exit

QuESTAssert.exit:                                 ; preds = %4, %10
  %11 = icmp slt i64 %2, 0
  %12 = icmp sgt i64 %2, %7
  %.not18 = select i1 %11, i1 true, i1 %12
  br i1 %.not18, label %13, label %QuESTAssert.exit12

13:                                               ; preds = %QuESTAssert.exit
  tail call void @invalidQuESTInputError(ptr noundef nonnull @.str.12, ptr noundef %3)
  br label %QuESTAssert.exit12

QuESTAssert.exit12:                               ; preds = %QuESTAssert.exit, %13
  %14 = add nsw i64 %2, %1
  %.not = icmp sgt i64 %14, %7
  br i1 %.not, label %15, label %QuESTAssert.exit14

15:                                               ; preds = %QuESTAssert.exit12
  tail call void @invalidQuESTInputError(ptr noundef nonnull @.str.14, ptr noundef %3)
  br label %QuESTAssert.exit14

QuESTAssert.exit14:                               ; preds = %QuESTAssert.exit12, %15
  ret void
}